; Function Attrs: nounwind uwtable
define dso_local ptr @xgetaddrinfo_port(ptr noundef %0, i16 noundef zeroext %1) local_unnamed_addr #0 {
  %3 = alloca %struct.addrinfo, align 8
  %4 = alloca [6 x i8], align 1
  call void @llvm.lifetime.start.p0(i64 6, ptr nonnull %4) #14
  %5 = zext i16 %1 to i32
  %6 = call i32 (ptr, i64, ptr, ...) @snprintf(ptr noundef nonnull dereferenceable(1) %4, i64 noundef 6, ptr noundef nonnull @.str.3, i32 noundef %5) #14
  call void @llvm.lifetime.start.p0(i64 48, ptr nonnull %3) #14
  %7 = load i32, ptr getelementptr inbounds nuw (i8, ptr @slurm_conf, i64 268), align 4
  %8 = zext i32 %7 to i64
  %9 = and i64 %8, 64
  %.not.not.i = icmp eq i64 %9, 0
  %10 = and i64 %8, 128
  %.not13.i = icmp eq i64 %10, 0
  call void @llvm.memset.p0.i64(ptr noundef nonnull align 8 dereferenceable(48) %3, i8 0, i64 48, i1 false)
  %11 = trunc i32 %7 to i8
  %trunc.i = and i8 %11, -64
  switch i8 %trunc.i, label %14 [
    i8 64, label %.sink.split.i
    i8 -128, label %12
  ]

12:                                               ; preds = %2
  br label %.sink.split.i

.sink.split.i:                                    ; preds = %12, %2
  %.sink.i = phi i32 [ 10, %12 ], [ 2, %2 ]
  %13 = getelementptr inbounds nuw i8, ptr %3, i64 4
  store i32 %.sink.i, ptr %13, align 4
  br label %14

14:                                               ; preds = %.sink.split.i, %2
  %15 = tail call i32 @xstrcmp(ptr noundef nonnull @.str.4, ptr noundef %0) #14
  %.not14.i = icmp eq i32 %15, 0
  %..str.6.i = select i1 %.not.not.i, ptr null, ptr @.str.6
  %spec.select18.i = select i1 %.not13.i, ptr %..str.6.i, ptr @.str.5
  %.0.i = select i1 %.not14.i, ptr %spec.select18.i, ptr %0
  br i1 %.not13.i, label %18, label %16

16:                                               ; preds = %14
  %17 = tail call i32 @xstrcmp(ptr noundef nonnull @.str.7, ptr noundef %.0.i) #14
  %.not15.i = icmp eq i32 %17, 0
  br i1 %.not15.i, label %xgetaddrinfo.exit, label %18

18:                                               ; preds = %16, %14
  %.not16.i = icmp eq ptr %.0.i, null
  %spec.select = select i1 %.not16.i, i32 1057, i32 1059
  br label %xgetaddrinfo.exit

xgetaddrinfo.exit:                                ; preds = %18, %16
  %storemerge.i = phi i32 [ 1059, %16 ], [ %spec.select, %18 ]
  %.sink24.i = phi ptr [ @.str.8, %16 ], [ %.0.i, %18 ]
  store i32 %storemerge.i, ptr %3, align 8
  %19 = getelementptr inbounds nuw i8, ptr %3, i64 8
  store i32 1, ptr %19, align 8
  %20 = call fastcc ptr @_xgetaddrinfo(ptr noundef %.sink24.i, ptr noundef nonnull %4, ptr noundef %3)
  call void @llvm.lifetime.end.p0(i64 48, ptr nonnull %3) #14
  call void @llvm.lifetime.end.p0(i64 6, ptr nonnull %4) #14
  ret ptr %20
}